	.file	"mainT.c"
	.text
.Ltext0:
	.file 0 "/home/jose/Escritorio/2425/p2robo/genericos" "mainT.c"
	.local	_ZStL8__ioinit
	.comm	_ZStL8__ioinit,1,1
	.section	.rodata
.LC2:
	.string	", "
	.text
	.globl	main
	.type	main, @function
main:
.LFB1737:
	.file 1 "mainT.c"
	.loc 1 6 11
	.cfi_startproc
	endbr64
	pushq	%rbp
	.cfi_def_cfa_offset 16
	.cfi_offset 6, -16
	movq	%rsp, %rbp
	.cfi_def_cfa_register 6
	pushq	%rbx
	subq	$56, %rsp
	.cfi_offset 3, -24
	.loc 1 6 11
	movq	%fs:40, %rax
	movq	%rax, -24(%rbp)
	xorl	%eax, %eax
	.loc 1 7 9
	movl	$12, -60(%rbp)
	.loc 1 10 14
	leaq	-56(%rbp), %rax
	movq	%rax, %rdi
	call	_ZN6TuplaTIiEC1Ev
	.loc 1 10 36
	leaq	-48(%rbp), %rax
	movl	$4, %edx
	movl	$3, %esi
	movq	%rax, %rdi
	call	_ZN6TuplaTIiEC1Eii
	.loc 1 11 16
	leaq	-40(%rbp), %rax
	movq	%rax, %rdi
	call	_ZN6TuplaTIfEC1Ev
	.loc 1 11 40
	leaq	-32(%rbp), %rax
	movss	.LC0(%rip), %xmm1
	movl	.LC1(%rip), %edx
	movd	%edx, %xmm0
	movq	%rax, %rdi
	call	_ZN6TuplaTIfEC1Eff
	.loc 1 12 34
	leaq	-62(%rbp), %rax
	movl	$82, %edx
	movl	$65, %esi
	movq	%rax, %rdi
	call	_ZN6TuplaTIcEC1Ecc
	.loc 1 14 33
	leaq	-48(%rbp), %rax
	movq	%rax, %rdi
	call	_ZNK6TuplaTIiE8getFirstEv
	movl	%eax, %esi
	leaq	_ZSt4cout(%rip), %rax
	movq	%rax, %rdi
	call	_ZNSolsEi@PLT
	movq	%rax, %rdx
	leaq	.LC2(%rip), %rax
	movq	%rax, %rsi
	movq	%rdx, %rdi
	call	_ZStlsISt11char_traitsIcEERSt13basic_ostreamIcT_ES5_PKc@PLT
	movq	%rax, %rbx
	.loc 1 14 60
	leaq	-48(%rbp), %rax
	movq	%rax, %rdi
	call	_ZNK6TuplaTIiE9getSecondEv
	movl	%eax, %esi
	movq	%rbx, %rdi
	call	_ZNSolsEi@PLT
	.loc 1 14 65
	movq	_ZSt4endlIcSt11char_traitsIcEERSt13basic_ostreamIT_T0_ES6_@GOTPCREL(%rip), %rdx
	movq	%rdx, %rsi
	movq	%rax, %rdi
	call	_ZNSolsEPFRSoS_E@PLT
	.loc 1 15 29
	leaq	-62(%rbp), %rax
	movq	%rax, %rdi
	call	_ZNK6TuplaTIcE8getFirstEv
	.loc 1 15 64
	movsbl	%al, %eax
	movl	%eax, %esi
	leaq	_ZSt4cout(%rip), %rax
	movq	%rax, %rdi
	call	_ZStlsISt11char_traitsIcEERSt13basic_ostreamIcT_ES5_c@PLT
	movq	%rax, %rdx
	leaq	.LC2(%rip), %rax
	movq	%rax, %rsi
	movq	%rdx, %rdi
	call	_ZStlsISt11char_traitsIcEERSt13basic_ostreamIcT_ES5_PKc@PLT
	movq	%rax, %rbx
	.loc 1 15 63
	leaq	-62(%rbp), %rax
	movq	%rax, %rdi
	call	_ZNK6TuplaTIcE9getSecondEv
	.loc 1 15 64
	movsbl	%al, %eax
	movl	%eax, %esi
	movq	%rbx, %rdi
	call	_ZStlsISt11char_traitsIcEERSt13basic_ostreamIcT_ES5_c@PLT
	.loc 1 15 69
	movq	_ZSt4endlIcSt11char_traitsIcEERSt13basic_ostreamIT_T0_ES6_@GOTPCREL(%rip), %rdx
	movq	%rdx, %rsi
	movq	%rax, %rdi
	call	_ZNSolsEPFRSoS_E@PLT
	.loc 1 16 9
	movl	$0, %eax
	.loc 1 17 1
	movq	-24(%rbp), %rdx
	subq	%fs:40, %rdx
	je	.L3
	call	__stack_chk_fail@PLT
.L3:
	movq	-8(%rbp), %rbx
	leave
	.cfi_def_cfa 7, 8
	ret
	.cfi_endproc
.LFE1737:
	.size	main, .-main
	.section	.text._ZN6TuplaTIiEC2Ev,"axG",@progbits,_ZN6TuplaTIiEC5Ev,comdat
	.align 2
	.weak	_ZN6TuplaTIiEC2Ev
	.type	_ZN6TuplaTIiEC2Ev, @function
_ZN6TuplaTIiEC2Ev:
.LFB1999:
	.file 2 "TuplaT.cc"
	.loc 2 5 1
	.cfi_startproc
	endbr64
	pushq	%rbp
	.cfi_def_cfa_offset 16
	.cfi_offset 6, -16
	movq	%rsp, %rbp
	.cfi_def_cfa_register 6
	movq	%rdi, -8(%rbp)
	.loc 2 6 1
	nop
	popq	%rbp
	.cfi_def_cfa 7, 8
	ret
	.cfi_endproc
.LFE1999:
	.size	_ZN6TuplaTIiEC2Ev, .-_ZN6TuplaTIiEC2Ev
	.weak	_ZN6TuplaTIiEC1Ev
	.set	_ZN6TuplaTIiEC1Ev,_ZN6TuplaTIiEC2Ev
	.section	.text._ZN6TuplaTIiEC2Eii,"axG",@progbits,_ZN6TuplaTIiEC5Eii,comdat
	.align 2
	.weak	_ZN6TuplaTIiEC2Eii
	.type	_ZN6TuplaTIiEC2Eii, @function
_ZN6TuplaTIiEC2Eii:
.LFB2002:
	.loc 2 10 1
	.cfi_startproc
	endbr64
	pushq	%rbp
	.cfi_def_cfa_offset 16
	.cfi_offset 6, -16
	movq	%rsp, %rbp
	.cfi_def_cfa_register 6
	movq	%rdi, -8(%rbp)
	movl	%esi, -12(%rbp)
	movl	%edx, -16(%rbp)
.LBB2:
	.loc 2 10 29
	movq	-8(%rbp), %rax
	movl	-12(%rbp), %edx
	movl	%edx, (%rax)
	.loc 2 10 39
	movq	-8(%rbp), %rax
	movl	-16(%rbp), %edx
	movl	%edx, 4(%rax)
.LBE2:
	.loc 2 12 1
	nop
	popq	%rbp
	.cfi_def_cfa 7, 8
	ret
	.cfi_endproc
.LFE2002:
	.size	_ZN6TuplaTIiEC2Eii, .-_ZN6TuplaTIiEC2Eii
	.weak	_ZN6TuplaTIiEC1Eii
	.set	_ZN6TuplaTIiEC1Eii,_ZN6TuplaTIiEC2Eii
	.section	.text._ZN6TuplaTIfEC2Ev,"axG",@progbits,_ZN6TuplaTIfEC5Ev,comdat
	.align 2
	.weak	_ZN6TuplaTIfEC2Ev
	.type	_ZN6TuplaTIfEC2Ev, @function
_ZN6TuplaTIfEC2Ev:
.LFB2005:
	.loc 2 5 1
	.cfi_startproc
	endbr64
	pushq	%rbp
	.cfi_def_cfa_offset 16
	.cfi_offset 6, -16
	movq	%rsp, %rbp
	.cfi_def_cfa_register 6
	movq	%rdi, -8(%rbp)
	.loc 2 6 1
	nop
	popq	%rbp
	.cfi_def_cfa 7, 8
	ret
	.cfi_endproc
.LFE2005:
	.size	_ZN6TuplaTIfEC2Ev, .-_ZN6TuplaTIfEC2Ev
	.weak	_ZN6TuplaTIfEC1Ev
	.set	_ZN6TuplaTIfEC1Ev,_ZN6TuplaTIfEC2Ev
	.section	.text._ZN6TuplaTIfEC2Eff,"axG",@progbits,_ZN6TuplaTIfEC5Eff,comdat
	.align 2
	.weak	_ZN6TuplaTIfEC2Eff
	.type	_ZN6TuplaTIfEC2Eff, @function
_ZN6TuplaTIfEC2Eff:
.LFB2008:
	.loc 2 10 1
	.cfi_startproc
	endbr64
	pushq	%rbp
	.cfi_def_cfa_offset 16
	.cfi_offset 6, -16
	movq	%rsp, %rbp
	.cfi_def_cfa_register 6
	movq	%rdi, -8(%rbp)
	movss	%xmm0, -12(%rbp)
	movss	%xmm1, -16(%rbp)
.LBB3:
	.loc 2 10 29
	movq	-8(%rbp), %rax
	movss	-12(%rbp), %xmm0
	movss	%xmm0, (%rax)
	.loc 2 10 39
	movq	-8(%rbp), %rax
	movss	-16(%rbp), %xmm0
	movss	%xmm0, 4(%rax)
.LBE3:
	.loc 2 12 1
	nop
	popq	%rbp
	.cfi_def_cfa 7, 8
	ret
	.cfi_endproc
.LFE2008:
	.size	_ZN6TuplaTIfEC2Eff, .-_ZN6TuplaTIfEC2Eff
	.weak	_ZN6TuplaTIfEC1Eff
	.set	_ZN6TuplaTIfEC1Eff,_ZN6TuplaTIfEC2Eff
	.section	.text._ZN6TuplaTIcEC2Ecc,"axG",@progbits,_ZN6TuplaTIcEC5Ecc,comdat
	.align 2
	.weak	_ZN6TuplaTIcEC2Ecc
	.type	_ZN6TuplaTIcEC2Ecc, @function
_ZN6TuplaTIcEC2Ecc:
.LFB2011:
	.loc 2 10 1
	.cfi_startproc
	endbr64
	pushq	%rbp
	.cfi_def_cfa_offset 16
	.cfi_offset 6, -16
	movq	%rsp, %rbp
	.cfi_def_cfa_register 6
	movq	%rdi, -8(%rbp)
	movl	%esi, %ecx
	movl	%edx, %eax
	movl	%ecx, %edx
	movb	%dl, -12(%rbp)
	movb	%al, -16(%rbp)
.LBB4:
	.loc 2 10 29
	movq	-8(%rbp), %rax
	movzbl	-12(%rbp), %edx
	movb	%dl, (%rax)
	.loc 2 10 39
	movq	-8(%rbp), %rax
	movzbl	-16(%rbp), %edx
	movb	%dl, 1(%rax)
.LBE4:
	.loc 2 12 1
	nop
	popq	%rbp
	.cfi_def_cfa 7, 8
	ret
	.cfi_endproc
.LFE2011:
	.size	_ZN6TuplaTIcEC2Ecc, .-_ZN6TuplaTIcEC2Ecc
	.weak	_ZN6TuplaTIcEC1Ecc
	.set	_ZN6TuplaTIcEC1Ecc,_ZN6TuplaTIcEC2Ecc
	.section	.text._ZNK6TuplaTIiE8getFirstEv,"axG",@progbits,_ZNK6TuplaTIiE8getFirstEv,comdat
	.align 2
	.weak	_ZNK6TuplaTIiE8getFirstEv
	.type	_ZNK6TuplaTIiE8getFirstEv, @function
_ZNK6TuplaTIiE8getFirstEv:
.LFB2013:
	.loc 2 15 3
	.cfi_startproc
	endbr64
	pushq	%rbp
	.cfi_def_cfa_offset 16
	.cfi_offset 6, -16
	movq	%rsp, %rbp
	.cfi_def_cfa_register 6
	movq	%rdi, -8(%rbp)
	.loc 2 16 9
	movq	-8(%rbp), %rax
	movl	(%rax), %eax
	.loc 2 17 1
	popq	%rbp
	.cfi_def_cfa 7, 8
	ret
	.cfi_endproc
.LFE2013:
	.size	_ZNK6TuplaTIiE8getFirstEv, .-_ZNK6TuplaTIiE8getFirstEv
	.section	.text._ZNK6TuplaTIiE9getSecondEv,"axG",@progbits,_ZNK6TuplaTIiE9getSecondEv,comdat
	.align 2
	.weak	_ZNK6TuplaTIiE9getSecondEv
	.type	_ZNK6TuplaTIiE9getSecondEv, @function
_ZNK6TuplaTIiE9getSecondEv:
.LFB2015:
	.loc 2 20 3
	.cfi_startproc
	endbr64
	pushq	%rbp
	.cfi_def_cfa_offset 16
	.cfi_offset 6, -16
	movq	%rsp, %rbp
	.cfi_def_cfa_register 6
	movq	%rdi, -8(%rbp)
	.loc 2 21 9
	movq	-8(%rbp), %rax
	movl	4(%rax), %eax
	.loc 2 22 1
	popq	%rbp
	.cfi_def_cfa 7, 8
	ret
	.cfi_endproc
.LFE2015:
	.size	_ZNK6TuplaTIiE9getSecondEv, .-_ZNK6TuplaTIiE9getSecondEv
	.section	.text._ZNK6TuplaTIcE8getFirstEv,"axG",@progbits,_ZNK6TuplaTIcE8getFirstEv,comdat
	.align 2
	.weak	_ZNK6TuplaTIcE8getFirstEv
	.type	_ZNK6TuplaTIcE8getFirstEv, @function
_ZNK6TuplaTIcE8getFirstEv:
.LFB2018:
	.loc 2 15 3
	.cfi_startproc
	endbr64
	pushq	%rbp
	.cfi_def_cfa_offset 16
	.cfi_offset 6, -16
	movq	%rsp, %rbp
	.cfi_def_cfa_register 6
	movq	%rdi, -8(%rbp)
	.loc 2 16 9
	movq	-8(%rbp), %rax
	movzbl	(%rax), %eax
	.loc 2 17 1
	popq	%rbp
	.cfi_def_cfa 7, 8
	ret
	.cfi_endproc
.LFE2018:
	.size	_ZNK6TuplaTIcE8getFirstEv, .-_ZNK6TuplaTIcE8getFirstEv
	.section	.text._ZNK6TuplaTIcE9getSecondEv,"axG",@progbits,_ZNK6TuplaTIcE9getSecondEv,comdat
	.align 2
	.weak	_ZNK6TuplaTIcE9getSecondEv
	.type	_ZNK6TuplaTIcE9getSecondEv, @function
_ZNK6TuplaTIcE9getSecondEv:
.LFB2020:
	.loc 2 20 3
	.cfi_startproc
	endbr64
	pushq	%rbp
	.cfi_def_cfa_offset 16
	.cfi_offset 6, -16
	movq	%rsp, %rbp
	.cfi_def_cfa_register 6
	movq	%rdi, -8(%rbp)
	.loc 2 21 9
	movq	-8(%rbp), %rax
	movzbl	1(%rax), %eax
	.loc 2 22 1
	popq	%rbp
	.cfi_def_cfa 7, 8
	ret
	.cfi_endproc
.LFE2020:
	.size	_ZNK6TuplaTIcE9getSecondEv, .-_ZNK6TuplaTIcE9getSecondEv
	.text
	.type	_Z41__static_initialization_and_destruction_0ii, @function
_Z41__static_initialization_and_destruction_0ii:
.LFB2260:
	.loc 1 17 1
	.cfi_startproc
	endbr64
	pushq	%rbp
	.cfi_def_cfa_offset 16
	.cfi_offset 6, -16
	movq	%rsp, %rbp
	.cfi_def_cfa_register 6
	subq	$16, %rsp
	movl	%edi, -4(%rbp)
	movl	%esi, -8(%rbp)
	.loc 1 17 1
	cmpl	$1, -4(%rbp)
	jne	.L19
	.loc 1 17 1 is_stmt 0 discriminator 1
	cmpl	$65535, -8(%rbp)
	jne	.L19
	.file 3 "/usr/include/c++/11/iostream"
	.loc 3 74 25 is_stmt 1
	leaq	_ZStL8__ioinit(%rip), %rax
	movq	%rax, %rdi
	call	_ZNSt8ios_base4InitC1Ev@PLT
	leaq	__dso_handle(%rip), %rax
	movq	%rax, %rdx
	leaq	_ZStL8__ioinit(%rip), %rax
	movq	%rax, %rsi
	movq	_ZNSt8ios_base4InitD1Ev@GOTPCREL(%rip), %rax
	movq	%rax, %rdi
	call	__cxa_atexit@PLT
.L19:
	.loc 1 17 1
	nop
	leave
	.cfi_def_cfa 7, 8
	ret
	.cfi_endproc
.LFE2260:
	.size	_Z41__static_initialization_and_destruction_0ii, .-_Z41__static_initialization_and_destruction_0ii
	.type	_GLOBAL__sub_I_main, @function
_GLOBAL__sub_I_main:
.LFB2261:
	.loc 1 17 1
	.cfi_startproc
	endbr64
	pushq	%rbp
	.cfi_def_cfa_offset 16
	.cfi_offset 6, -16
	movq	%rsp, %rbp
	.cfi_def_cfa_register 6
	.loc 1 17 1
	movl	$65535, %esi
	movl	$1, %edi
	call	_Z41__static_initialization_and_destruction_0ii
	popq	%rbp
	.cfi_def_cfa 7, 8
	ret
	.cfi_endproc
.LFE2261:
	.size	_GLOBAL__sub_I_main, .-_GLOBAL__sub_I_main
	.section	.init_array,"aw"
	.align 8
	.quad	_GLOBAL__sub_I_main
	.section	.rodata
	.align 4
.LC0:
	.long	1075000115
	.align 4
.LC1:
	.long	1082969293
	.text
.Letext0:
	.file 4 "<built-in>"
	.file 5 "/usr/lib/gcc/x86_64-linux-gnu/11/include/stddef.h"
	.file 6 "/usr/include/x86_64-linux-gnu/bits/types/wint_t.h"
	.file 7 "/usr/include/x86_64-linux-gnu/bits/types/__mbstate_t.h"
	.file 8 "/usr/include/x86_64-linux-gnu/bits/types/mbstate_t.h"
	.file 9 "/usr/include/x86_64-linux-gnu/bits/types/__FILE.h"
	.file 10 "/usr/include/x86_64-linux-gnu/bits/types/struct_FILE.h"
	.file 11 "/usr/include/x86_64-linux-gnu/bits/types/FILE.h"
	.file 12 "/usr/include/c++/11/cwchar"
	.file 13 "/usr/include/x86_64-linux-gnu/c++/11/bits/c++config.h"
	.file 14 "/usr/include/c++/11/type_traits"
	.file 15 "/usr/include/c++/11/bits/exception_ptr.h"
	.file 16 "/usr/include/c++/11/debug/debug.h"
	.file 17 "/usr/include/c++/11/bits/char_traits.h"
	.file 18 "/usr/include/c++/11/cstdint"
	.file 19 "/usr/include/c++/11/clocale"
	.file 20 "/usr/include/c++/11/cstdlib"
	.file 21 "/usr/include/c++/11/cstdio"
	.file 22 "/usr/include/c++/11/bits/ios_base.h"
	.file 23 "/usr/include/c++/11/cwctype"
	.file 24 "/usr/include/c++/11/bits/ostream.tcc"
	.file 25 "/usr/include/c++/11/ostream"
	.file 26 "/usr/include/c++/11/iosfwd"
	.file 27 "/usr/include/wchar.h"
	.file 28 "/usr/include/x86_64-linux-gnu/bits/types/struct_tm.h"
	.file 29 "/usr/include/c++/11/bits/predefined_ops.h"
	.file 30 "/usr/include/x86_64-linux-gnu/bits/types.h"
	.file 31 "/usr/include/x86_64-linux-gnu/bits/stdint-intn.h"
	.file 32 "/usr/include/x86_64-linux-gnu/bits/stdint-uintn.h"
	.file 33 "/usr/include/stdint.h"
	.file 34 "/usr/include/locale.h"
	.file 35 "/usr/include/stdlib.h"
	.file 36 "/usr/include/x86_64-linux-gnu/bits/types/__fpos_t.h"
	.file 37 "/usr/include/stdio.h"
	.file 38 "/usr/include/x86_64-linux-gnu/bits/wctype-wchar.h"
	.file 39 "/usr/include/wctype.h"
	.file 40 "TuplaT.h"
	.file 41 "/usr/include/c++/11/system_error"
	.section	.note.GNU-stack,"",@progbits
	.section	.note.gnu.property,"a"
	.align 8
	.long	1f - 0f
	.long	4f - 1f
	.long	5
0:
	.string	"GNU"
1:
	.align 8
	.long	0xc0000002
	.long	3f - 2f
2:
	.long	0x3
3:
	.align 8
4:
